target datalayout = "e-m:e-p270:32:32-p271:32:32-p272:64:64-i64:64-i128:128-f80:128-n8:16:32:64-S128"
target triple = "x86_64-unknown-linux-gnu"

; Function Attrs: mustprogress nounwind uwtable
define internal noundef double @_ZN6hermes2vmL7posfmodEdd(double noundef %x, double noundef %y) #0 {
entry:
  %x.addr = alloca double, align 8
  %y.addr = alloca double, align 8
  %result = alloca double, align 8
  store double %x, ptr %x.addr, align 8
  store double %y, ptr %y.addr, align 8
  %0 = load double, ptr %x.addr, align 8
  %1 = load double, ptr %y.addr, align 8
  %call = call double @fmod(double noundef %0, double noundef %1) #7
  store double %call, ptr %result, align 8
  %2 = load double, ptr %result, align 8
  %cmp = fcmp olt double %2, 0.000000e+00
  br i1 %cmp, label %cond.true, label %cond.false

cond.true:                                        ; preds = %entry
  %3 = load double, ptr %result, align 8
  %4 = load double, ptr %y.addr, align 8
  %add = fadd double %3, %4
  br label %cond.end

cond.false:                                       ; preds = %entry
  %5 = load double, ptr %result, align 8
  br label %cond.end

cond.end:                                         ; preds = %cond.false, %cond.true
  %cond = phi double [ %add, %cond.true ], [ %5, %cond.false ]
  ret double %cond
}

; Function Attrs: mustprogress nounwind uwtable
define hidden noundef double @_ZN6hermes2vm3dayEd(double noundef %t) #0 {
entry:
  %t.addr = alloca double, align 8
  store double %t, ptr %t.addr, align 8
  %0 = load double, ptr %t.addr, align 8
  %div = fdiv double %0, 8.640000e+07
  %1 = call double @llvm.floor.f64(double %div)
  ret double %1
}

; Function Attrs: mustprogress nounwind uwtable
define hidden noundef i32 @_ZN6hermes2vm7weekDayEd(double noundef %t) #0 {
entry:
  %t.addr = alloca double, align 8
  store double %t, ptr %t.addr, align 8
  %0 = load double, ptr %t.addr, align 8
  %call = call noundef double @_ZN6hermes2vm3dayEd(double noundef %0)
  %add = fadd double %call, 4.000000e+00
  %call1 = call noundef double @_ZN6hermes2vmL7posfmodEdd(double noundef %add, double noundef 7.000000e+00)
  %conv = fptosi double %call1 to i32
  ret i32 %conv
}