; Function Attrs: mustprogress nofree nounwind willreturn memory(write) uwtable
define hidden noundef i32 @_ZN6hermes2vm7weekDayEd(double noundef %t) local_unnamed_addr #4 {
entry:
  %div.i = fdiv double %t, 8.640000e+07
  %0 = tail call noundef double @llvm.floor.f64(double %div.i)
  %add = fadd double %0, 4.000000e+00
  %call.i = tail call double @fmod(double noundef %add, double noundef 7.000000e+00) #17
  %cmp.i = fcmp olt double %call.i, 0.000000e+00
  %add.i = fadd double %call.i, 7.000000e+00
  %cond.i = select i1 %cmp.i, double %add.i, double %call.i
  %conv = fptosi double %cond.i to i32
  ret i32 %conv
}